target datalayout = "e-m:e-p270:32:32-p271:32:32-p272:64:64-i64:64-i128:128-f80:128-n8:16:32:64-S128"
target triple = "x86_64-pc-linux-gnu"

%struct.TT_CMapRec_ = type { %struct.FT_CMapRec_, ptr, i32 }
%struct.FT_CMapRec_ = type { %struct.FT_CharMapRec_, ptr }
%struct.FT_CharMapRec_ = type { ptr, i32, i16, i16 }

; Function Attrs: nounwind uwtable
define internal i32 @tt_cmap8_char_index(ptr noundef %0, i32 noundef %1) #0 {
  %3 = alloca i32, align 4
  %4 = alloca ptr, align 8
  %5 = alloca i32, align 4
  %6 = alloca ptr, align 8
  %7 = alloca ptr, align 8
  %8 = alloca i32, align 4
  %9 = alloca ptr, align 8
  %10 = alloca i32, align 4
  %11 = alloca i32, align 4
  %12 = alloca i32, align 4
  %13 = alloca i32, align 4
  store ptr %0, ptr %4, align 8
  store i32 %1, ptr %5, align 4
  %14 = load ptr, ptr %4, align 8
  store ptr %14, ptr %6, align 8
  %15 = load ptr, ptr %6, align 8
  %16 = getelementptr inbounds %struct.TT_CMapRec_, ptr %15, i32 0, i32 1
  %17 = load ptr, ptr %16, align 8
  store ptr %17, ptr %7, align 8
  store i32 0, ptr %8, align 4
  %18 = load ptr, ptr %7, align 8
  %19 = getelementptr inbounds i8, ptr %18, i64 8204
  store ptr %19, ptr %9, align 8
  %20 = load ptr, ptr %9, align 8
  %21 = getelementptr inbounds i8, ptr %20, i64 4
  store ptr %21, ptr %9, align 8
  %22 = load ptr, ptr %9, align 8
  %23 = getelementptr inbounds i8, ptr %22, i64 -4
  %24 = getelementptr inbounds i8, ptr %23, i64 0
  %25 = load i8, ptr %24, align 1
  %26 = zext i8 %25 to i32
  %27 = shl i32 %26, 24
  %28 = load ptr, ptr %9, align 8
  %29 = getelementptr inbounds i8, ptr %28, i64 -4
  %30 = getelementptr inbounds i8, ptr %29, i64 1
  %31 = load i8, ptr %30, align 1
  %32 = zext i8 %31 to i32
  %33 = shl i32 %32, 16
  %34 = or i32 %27, %33
  %35 = load ptr, ptr %9, align 8
  %36 = getelementptr inbounds i8, ptr %35, i64 -4
  %37 = getelementptr inbounds i8, ptr %36, i64 2
  %38 = load i8, ptr %37, align 1
  %39 = zext i8 %38 to i32
  %40 = shl i32 %39, 8
  %41 = or i32 %34, %40
  %42 = load ptr, ptr %9, align 8
  %43 = getelementptr inbounds i8, ptr %42, i64 -4
  %44 = getelementptr inbounds i8, ptr %43, i64 3
  %45 = load i8, ptr %44, align 1
  %46 = zext i8 %45 to i32
  %47 = shl i32 %46, 0
  %48 = or i32 %41, %47
  store i32 %48, ptr %10, align 4
  br label %49

49:                                               ; preds = %165, %2
  %50 = load i32, ptr %10, align 4
  %51 = icmp ugt i32 %50, 0
  br i1 %51, label %52, label %168

52:                                               ; preds = %49
  %53 = load ptr, ptr %9, align 8
  %54 = getelementptr inbounds i8, ptr %53, i64 4
  store ptr %54, ptr %9, align 8
  %55 = load ptr, ptr %9, align 8
  %56 = getelementptr inbounds i8, ptr %55, i64 -4
  %57 = getelementptr inbounds i8, ptr %56, i64 0
  %58 = load i8, ptr %57, align 1
  %59 = zext i8 %58 to i32
  %60 = shl i32 %59, 24
  %61 = load ptr, ptr %9, align 8
  %62 = getelementptr inbounds i8, ptr %61, i64 -4
  %63 = getelementptr inbounds i8, ptr %62, i64 1
  %64 = load i8, ptr %63, align 1
  %65 = zext i8 %64 to i32
  %66 = shl i32 %65, 16
  %67 = or i32 %60, %66
  %68 = load ptr, ptr %9, align 8
  %69 = getelementptr inbounds i8, ptr %68, i64 -4
  %70 = getelementptr inbounds i8, ptr %69, i64 2
  %71 = load i8, ptr %70, align 1
  %72 = zext i8 %71 to i32
  %73 = shl i32 %72, 8
  %74 = or i32 %67, %73
  %75 = load ptr, ptr %9, align 8
  %76 = getelementptr inbounds i8, ptr %75, i64 -4
  %77 = getelementptr inbounds i8, ptr %76, i64 3
  %78 = load i8, ptr %77, align 1
  %79 = zext i8 %78 to i32
  %80 = shl i32 %79, 0
  %81 = or i32 %74, %80
  store i32 %81, ptr %11, align 4
  %82 = load ptr, ptr %9, align 8
  %83 = getelementptr inbounds i8, ptr %82, i64 4
  store ptr %83, ptr %9, align 8
  %84 = load ptr, ptr %9, align 8
  %85 = getelementptr inbounds i8, ptr %84, i64 -4
  %86 = getelementptr inbounds i8, ptr %85, i64 0
  %87 = load i8, ptr %86, align 1
  %88 = zext i8 %87 to i32
  %89 = shl i32 %88, 24
  %90 = load ptr, ptr %9, align 8
  %91 = getelementptr inbounds i8, ptr %90, i64 -4
  %92 = getelementptr inbounds i8, ptr %91, i64 1
  %93 = load i8, ptr %92, align 1
  %94 = zext i8 %93 to i32
  %95 = shl i32 %94, 16
  %96 = or i32 %89, %95
  %97 = load ptr, ptr %9, align 8
  %98 = getelementptr inbounds i8, ptr %97, i64 -4
  %99 = getelementptr inbounds i8, ptr %98, i64 2
  %100 = load i8, ptr %99, align 1
  %101 = zext i8 %100 to i32
  %102 = shl i32 %101, 8
  %103 = or i32 %96, %102
  %104 = load ptr, ptr %9, align 8
  %105 = getelementptr inbounds i8, ptr %104, i64 -4
  %106 = getelementptr inbounds i8, ptr %105, i64 3
  %107 = load i8, ptr %106, align 1
  %108 = zext i8 %107 to i32
  %109 = shl i32 %108, 0
  %110 = or i32 %103, %109
  store i32 %110, ptr %12, align 4
  %111 = load ptr, ptr %9, align 8
  %112 = getelementptr inbounds i8, ptr %111, i64 4
  store ptr %112, ptr %9, align 8
  %113 = load ptr, ptr %9, align 8
  %114 = getelementptr inbounds i8, ptr %113, i64 -4
  %115 = getelementptr inbounds i8, ptr %114, i64 0
  %116 = load i8, ptr %115, align 1
  %117 = zext i8 %116 to i32
  %118 = shl i32 %117, 24
  %119 = load ptr, ptr %9, align 8
  %120 = getelementptr inbounds i8, ptr %119, i64 -4
  %121 = getelementptr inbounds i8, ptr %120, i64 1
  %122 = load i8, ptr %121, align 1
  %123 = zext i8 %122 to i32
  %124 = shl i32 %123, 16
  %125 = or i32 %118, %124
  %126 = load ptr, ptr %9, align 8
  %127 = getelementptr inbounds i8, ptr %126, i64 -4
  %128 = getelementptr inbounds i8, ptr %127, i64 2
  %129 = load i8, ptr %128, align 1
  %130 = zext i8 %129 to i32
  %131 = shl i32 %130, 8
  %132 = or i32 %125, %131
  %133 = load ptr, ptr %9, align 8
  %134 = getelementptr inbounds i8, ptr %133, i64 -4
  %135 = getelementptr inbounds i8, ptr %134, i64 3
  %136 = load i8, ptr %135, align 1
  %137 = zext i8 %136 to i32
  %138 = shl i32 %137, 0
  %139 = or i32 %132, %138
  store i32 %139, ptr %13, align 4
  %140 = load i32, ptr %5, align 4
  %141 = load i32, ptr %11, align 4
  %142 = icmp ult i32 %140, %141
  br i1 %142, label %143, label %144

143:                                              ; preds = %52
  br label %168

144:                                              ; preds = %52
  %145 = load i32, ptr %5, align 4
  %146 = load i32, ptr %12, align 4
  %147 = icmp ule i32 %145, %146
  br i1 %147, label %148, label %164

148:                                              ; preds = %144
  %149 = load i32, ptr %13, align 4
  %150 = zext i32 %149 to i64
  %151 = load i32, ptr %5, align 4
  %152 = load i32, ptr %11, align 4
  %153 = sub i32 %151, %152
  %154 = zext i32 %153 to i64
  %155 = sub i64 4294967295, %154
  %156 = icmp ugt i64 %150, %155
  br i1 %156, label %157, label %158

157:                                              ; preds = %148
  store i32 0, ptr %3, align 4
  br label %170

158:                                              ; preds = %148
  %159 = load i32, ptr %13, align 4
  %160 = load i32, ptr %5, align 4
  %161 = load i32, ptr %11, align 4
  %162 = sub i32 %160, %161
  %163 = add i32 %159, %162
  store i32 %163, ptr %8, align 4
  br label %168

164:                                              ; preds = %144
  br label %165

165:                                              ; preds = %164
  %166 = load i32, ptr %10, align 4
  %167 = add i32 %166, -1
  store i32 %167, ptr %10, align 4
  br label %49, !llvm.loop !16

168:                                              ; preds = %158, %143, %49
  %169 = load i32, ptr %8, align 4
  store i32 %169, ptr %3, align 4
  br label %170

170:                                              ; preds = %168, %157
  %171 = load i32, ptr %3, align 4
  ret i32 %171
}