; Function Attrs: nofree norecurse nosync nounwind memory(read, inaccessiblemem: none) uwtable
define internal i32 @tt_cmap8_char_index(ptr nocapture noundef readonly %0, i32 noundef %1) #7 {
  %3 = getelementptr inbounds i8, ptr %0, i64 24
  %4 = load ptr, ptr %3, align 8
  %5 = getelementptr inbounds i8, ptr %4, i64 8204
  %6 = load i8, ptr %5, align 1
  %7 = zext i8 %6 to i32
  %8 = shl nuw i32 %7, 24
  %9 = getelementptr inbounds i8, ptr %4, i64 8205
  %10 = load i8, ptr %9, align 1
  %11 = zext i8 %10 to i32
  %12 = shl nuw nsw i32 %11, 16
  %13 = or disjoint i32 %12, %8
  %14 = getelementptr inbounds i8, ptr %4, i64 8206
  %15 = load i8, ptr %14, align 1
  %16 = zext i8 %15 to i32
  %17 = shl nuw nsw i32 %16, 8
  %18 = or disjoint i32 %13, %17
  %19 = getelementptr inbounds i8, ptr %4, i64 8207
  %20 = load i8, ptr %19, align 1
  %21 = zext i8 %20 to i32
  %22 = or disjoint i32 %18, %21
  %.not57 = icmp eq i32 %22, 0
  br i1 %.not57, label %.loopexit, label %.lr.ph.preheader

.lr.ph.preheader:                                 ; preds = %2
  %23 = getelementptr inbounds i8, ptr %4, i64 8208
  br label %.lr.ph

24:                                               ; preds = %45
  %25 = getelementptr inbounds i8, ptr %.03759, i64 12
  %26 = add i32 %.03858, -1
  %.not = icmp eq i32 %26, 0
  br i1 %.not, label %.loopexit, label %.lr.ph, !llvm.loop !15

.lr.ph:                                           ; preds = %.lr.ph.preheader, %24
  %.03759 = phi ptr [ %25, %24 ], [ %23, %.lr.ph.preheader ]
  %.03858 = phi i32 [ %26, %24 ], [ %22, %.lr.ph.preheader ]
  %27 = load i8, ptr %.03759, align 1
  %28 = zext i8 %27 to i32
  %29 = shl nuw i32 %28, 24
  %30 = getelementptr inbounds i8, ptr %.03759, i64 1
  %31 = load i8, ptr %30, align 1
  %32 = zext i8 %31 to i32
  %33 = shl nuw nsw i32 %32, 16
  %34 = or disjoint i32 %33, %29
  %35 = getelementptr inbounds i8, ptr %.03759, i64 2
  %36 = load i8, ptr %35, align 1
  %37 = zext i8 %36 to i32
  %38 = shl nuw nsw i32 %37, 8
  %39 = or disjoint i32 %34, %38
  %40 = getelementptr inbounds i8, ptr %.03759, i64 3
  %41 = load i8, ptr %40, align 1
  %42 = zext i8 %41 to i32
  %43 = or disjoint i32 %39, %42
  %44 = icmp ugt i32 %43, %1
  br i1 %44, label %.loopexit, label %45

45:                                               ; preds = %.lr.ph
  %46 = getelementptr inbounds i8, ptr %.03759, i64 4
  %47 = load i8, ptr %46, align 1
  %48 = zext i8 %47 to i32
  %49 = shl nuw i32 %48, 24
  %50 = getelementptr inbounds i8, ptr %.03759, i64 5
  %51 = load i8, ptr %50, align 1
  %52 = zext i8 %51 to i32
  %53 = shl nuw nsw i32 %52, 16
  %54 = or disjoint i32 %53, %49
  %55 = getelementptr inbounds i8, ptr %.03759, i64 6
  %56 = load i8, ptr %55, align 1
  %57 = zext i8 %56 to i32
  %58 = shl nuw nsw i32 %57, 8
  %59 = or disjoint i32 %54, %58
  %60 = getelementptr inbounds i8, ptr %.03759, i64 7
  %61 = load i8, ptr %60, align 1
  %62 = zext i8 %61 to i32
  %63 = or disjoint i32 %59, %62
  %.not41 = icmp ult i32 %63, %1
  br i1 %.not41, label %24, label %64

64:                                               ; preds = %45
  %65 = getelementptr inbounds i8, ptr %.03759, i64 8
  %66 = load i8, ptr %65, align 1
  %67 = zext i8 %66 to i32
  %68 = shl nuw i32 %67, 24
  %69 = getelementptr inbounds i8, ptr %.03759, i64 9
  %70 = load i8, ptr %69, align 1
  %71 = zext i8 %70 to i32
  %72 = shl nuw nsw i32 %71, 16
  %73 = or disjoint i32 %72, %68
  %74 = getelementptr inbounds i8, ptr %.03759, i64 10
  %75 = load i8, ptr %74, align 1
  %76 = zext i8 %75 to i32
  %77 = shl nuw nsw i32 %76, 8
  %78 = or disjoint i32 %73, %77
  %79 = getelementptr inbounds i8, ptr %.03759, i64 11
  %80 = load i8, ptr %79, align 1
  %81 = zext i8 %80 to i32
  %82 = or disjoint i32 %78, %81
  %83 = sub i32 %1, %43
  %84 = xor i32 %83, -1
  %85 = icmp ugt i32 %82, %84
  %86 = add i32 %82, %83
  %spec.select = select i1 %85, i32 0, i32 %86
  br label %.loopexit

.loopexit:                                        ; preds = %.lr.ph, %24, %2, %64
  %.0 = phi i32 [ %spec.select, %64 ], [ 0, %2 ], [ 0, %24 ], [ 0, %.lr.ph ]
  ret i32 %.0
}